; ModuleID = '45/437.c'
source_filename = "45/437.c"
target datalayout = "e-m:e-p270:32:32-p271:32:32-p272:64:64-i64:64-f80:128-n8:16:32:64-S128"
target triple = "x86_64-pc-linux-gnu"

@.str = private unnamed_addr constant [6 x i8] c"%s %s\00", align 1
@.str.1 = private unnamed_addr constant [3 x i8] c"%d\00", align 1

; Function Attrs: noinline nounwind uwtable
define dso_local i32 @main() #0 {
  %1 = alloca i32, align 4
  %2 = alloca [50 x i8], align 16
  %3 = alloca [50 x i8], align 16
  %4 = alloca i8*, align 8
  %5 = alloca i8*, align 8
  %6 = alloca i8*, align 8
  %7 = alloca i8*, align 8
  %8 = alloca i8*, align 8
  store i32 0, i32* %1, align 4
  %9 = getelementptr inbounds [50 x i8], [50 x i8]* %2, i64 0, i64 0
  %10 = getelementptr inbounds [50 x i8], [50 x i8]* %3, i64 0, i64 0
  %11 = call i32 (i8*, ...) @__isoc99_scanf(i8* getelementptr inbounds ([6 x i8], [6 x i8]* @.str, i64 0, i64 0), i8* %9, i8* %10)
  %12 = getelementptr inbounds [50 x i8], [50 x i8]* %3, i64 0, i64 0
  store i8* %12, i8** %7, align 8
  store i8* %12, i8** %5, align 8
  %13 = getelementptr inbounds [50 x i8], [50 x i8]* %2, i64 0, i64 0
  store i8* %13, i8** %8, align 8
  store i8* %13, i8** %6, align 8
  br label %14

14:                                               ; preds = %50, %0
  %15 = load i8*, i8** %5, align 8
  %16 = load i8, i8* %15, align 1
  %17 = sext i8 %16 to i32
  %18 = icmp ne i32 %17, 0
  br i1 %18, label %19, label %53

19:                                               ; preds = %14
  %20 = load i8*, i8** %5, align 8
  %21 = load i8, i8* %20, align 1
  %22 = sext i8 %21 to i32
  %23 = load i8*, i8** %6, align 8
  %24 = load i8, i8* %23, align 1
  %25 = sext i8 %24 to i32
  %26 = icmp ne i32 %22, %25
  br i1 %26, label %27, label %28

27:                                               ; preds = %19
  br label %50

28:                                               ; preds = %19
  %29 = load i8*, i8** %5, align 8
  store i8* %29, i8** %7, align 8
  br label %30

30:                                               ; preds = %47, %28
  %31 = load i8*, i8** %5, align 8
  %32 = getelementptr inbounds i8, i8* %31, i32 1
  store i8* %32, i8** %5, align 8
  %33 = load i8, i8* %31, align 1
  %34 = sext i8 %33 to i32
  %35 = load i8*, i8** %6, align 8
  %36 = getelementptr inbounds i8, i8* %35, i32 1
  store i8* %36, i8** %6, align 8
  %37 = load i8, i8* %35, align 1
  %38 = sext i8 %37 to i32
  %39 = icmp eq i32 %34, %38
  br i1 %39, label %40, label %48

40:                                               ; preds = %30
  %41 = load i8*, i8** %6, align 8
  %42 = load i8, i8* %41, align 1
  %43 = sext i8 %42 to i32
  %44 = icmp eq i32 %43, 0
  br i1 %44, label %45, label %47

45:                                               ; preds = %40
  %46 = load i8*, i8** %7, align 8
  store i8* %46, i8** %4, align 8
  br label %47

47:                                               ; preds = %45, %40
  br label %30

48:                                               ; preds = %30
  %49 = load i8*, i8** %8, align 8
  store i8* %49, i8** %6, align 8
  br label %50

50:                                               ; preds = %48, %27
  %51 = load i8*, i8** %5, align 8
  %52 = getelementptr inbounds i8, i8* %51, i32 1
  store i8* %52, i8** %5, align 8
  br label %14

53:                                               ; preds = %14
  %54 = load i8*, i8** %4, align 8
  %55 = getelementptr inbounds [50 x i8], [50 x i8]* %3, i64 0, i64 0
  %56 = ptrtoint i8* %54 to i64
  %57 = ptrtoint i8* %55 to i64
  %58 = sub i64 %56, %57
  %59 = call i32 (i8*, ...) @printf(i8* getelementptr inbounds ([3 x i8], [3 x i8]* @.str.1, i64 0, i64 0), i64 %58)
  ret i32 0
}

declare dso_local i32 @__isoc99_scanf(i8*, ...) #1

declare dso_local i32 @printf(i8*, ...) #1


!llvm.module.flags = !{!0}
!llvm.ident = !{!1}

!0 = !{i32 1, !"wchar_size", i32 4}
!1 = !{!"clang version 10.0.0-4ubuntu1 "}
